target datalayout = "e-m:e-p270:32:32-p271:32:32-p272:64:64-i64:64-i128:128-f80:128-n8:16:32:64-S128"
target triple = "x86_64-pc-linux-gnu"

%struct.redisServer = type { i32, i64, ptr, ptr, ptr, i32, i32, i32, i32, i32, ptr, ptr, ptr, ptr, ptr, i32, i32, i32, i32, i64, i32, i32, i32, i32, ptr, i32, i32, [41 x i8], i32, i64, i32, i32, i32, ptr, ptr, i32, i32, i64, ptr, ptr, ptr, ptr, [2 x i32], i32, i32, i32, i32, i32, i32, [16 x ptr], i32, ptr, ptr, i32, [8 x %struct.connListener], i32, %struct.connListener, ptr, ptr, ptr, ptr, ptr, ptr, ptr, ptr, ptr, ptr, i32, ptr, i32, ptr, [3 x %struct.pause_event], [256 x i8], ptr, i64, i32, i32, [128 x i32], i32, i32, i64, i32, i32, i32, i32, i32, i64, i64, i64, i64, i64, i64, i64, i64, i64, i64, double, i64, i64, i64, i64, i64, i64, i64, i64, i64, i64, i64, i64, i64, i64, i64, i64, i64, i64, i64, i64, i64, double, i64, i64, i64, i64, i64, ptr, i64, i64, i64, %struct.malloc_stats, i64, i64, i64, i64, i64, i64, i64, i64, i64, i64, i64, i64, double, [4 x i64], i64, i64, i64, i64, [128 x i64], [128 x i64], i64, i64, [7 x %struct.anon], i64, i64, i64, i64, i64, i64, [4 x %struct.durationStats], i32, i32, i32, i32, i32, i32, i32, i32, i32, i32, i32, i32, i64, i32, i32, i32, i32, i64, i64, i32, i32, i32, i32, i32, ptr, [3 x %struct.clientBufferLimitsConfig], i32, i32, i32, ptr, i32, i32, i32, i32, i32, i32, ptr, ptr, i32, i32, i64, i64, i64, i64, i64, i32, i32, ptr, i32, i32, i64, i64, i64, i64, i64, i32, i32, i64, i32, i32, i32, i32, i32, i32, i32, i32, ptr, i32, i64, i64, i64, i64, i32, ptr, i32, ptr, i32, i32, i32, i64, i64, i64, i64, i32, i32, i32, i32, i32, i32, ptr, i32, i32, ptr, i32, i32, i32, [2 x i32], i32, %struct.redisOpArray, i32, ptr, i32, ptr, i32, i32, i32, i32, i32, i32, i32, [41 x i8], [41 x i8], i64, i64, i64, i64, i32, i32, ptr, i64, i64, %struct.replDataBuf, i64, i64, i32, i32, i32, i32, i32, i32, i32, i32, i32, i64, ptr, i64, ptr, ptr, ptr, i32, i32, ptr, ptr, i32, i32, i32, i64, i64, i64, i64, ptr, ptr, i32, ptr, i64, i32, i32, i32, i64, i32, i32, i32, i32, ptr, i32, i32, [41 x i8], i64, i32, ptr, i32, i32, i64, i64, i32, i32, i32, i32, i32, i64, [3 x i32], i32, i32, i32, [10 x i32], ptr, ptr, i32, i64, ptr, ptr, i32, i32, i32, i32, i64, i64, i64, i64, i64, i64, i64, i64, i64, i64, i32, i32, i64, i64, i32, i64, i64, i64, i64, i64, ptr, ptr, i32, ptr, i32, i32, i32, i32, i64, i64, ptr, ptr, i32, i32, i32, i32, i32, ptr, ptr, ptr, i32, i32, i32, i32, i32, i32, i32, i64, i32, i32, i64, i32, i32, i32, i32, i32, i32, i32, i64, ptr, ptr, i64, ptr, i32, %struct.aclInfo, i32, i64, i32, i32, i32, %struct.redisTLSContextConfig, ptr, ptr, ptr, ptr, ptr, i64, i32, ptr, i32, i32, i32, i64, i32, ptr }
%struct.connListener = type { [16 x i32], i32, ptr, i32, i32, ptr, ptr }
%struct.pause_event = type { i32, i64 }
%struct.malloc_stats = type { i64, i64, i64, i64, i64, i64, i64, i64, i64, i64, i64 }
%struct.anon = type { i64, i64, [16 x i64], i32 }
%struct.durationStats = type { i64, i64, i64 }
%struct.clientBufferLimitsConfig = type { i64, i64, i64 }
%struct.redisOpArray = type { ptr, i32, i32 }
%struct.replDataBuf = type { ptr, i64, i64, i64, i64 }
%struct.aclInfo = type { i64, i64, i64, i64 }
%struct.redisTLSContextConfig = type { ptr, ptr, ptr, ptr, ptr, ptr, ptr, ptr, ptr, ptr, ptr, ptr, i32, i32, i32, i32 }
%struct.client = type { i64, i64, ptr, i8, i8, i8, i8, i32, ptr, ptr, ptr, ptr, ptr, i64, i64, i32, ptr, i32, i32, ptr, i64, ptr, ptr, ptr, ptr, ptr, i32, i32, i64, ptr, i64, ptr, i64, i64, i64, i32, ptr, i64, i64, i32, i32, i32, i32, i64, i64, ptr, i64, i64, i64, i64, i64, i64, i64, i64, [41 x i8], i32, ptr, i32, i32, i64, %struct.multiState, %struct.blockingState, i64, ptr, ptr, ptr, ptr, ptr, ptr, ptr, ptr, ptr, ptr, ptr, ptr, ptr, ptr, i64, ptr, i64, i32, ptr, ptr, ptr, i64, %struct.listNode, i64, i64, i32, i64, ptr }
%struct.multiState = type { ptr, i32, i32, i32, i64, i32 }
%struct.blockingState = type { i32, i64, i32, ptr, i32, i32, i64, ptr, ptr, i64 }
%struct.listNode = type { ptr, ptr, ptr }

@server = external global %struct.redisServer, align 8
@.str.7 = private unnamed_addr constant [52 x i8] c"PSUBSCRIBE isn't allowed for a DENY BLOCKING client\00", align 1

; Function Attrs: nounwind uwtable
define dso_local void @markClientAsPubSub(ptr noundef %0) #0 {
  %2 = alloca ptr, align 8
  store ptr %0, ptr %2, align 8, !tbaa !5
  %3 = load ptr, ptr %2, align 8, !tbaa !5
  %4 = getelementptr inbounds nuw %struct.client, ptr %3, i32 0, i32 1
  %5 = load i64, ptr %4, align 8, !tbaa !34
  %6 = and i64 %5, 262144
  %7 = icmp ne i64 %6, 0
  br i1 %7, label %15, label %8

8:                                                ; preds = %1
  %9 = load ptr, ptr %2, align 8, !tbaa !5
  %10 = getelementptr inbounds nuw %struct.client, ptr %9, i32 0, i32 1
  %11 = load i64, ptr %10, align 8, !tbaa !34
  %12 = or i64 %11, 262144
  store i64 %12, ptr %10, align 8, !tbaa !34
  %13 = load i32, ptr getelementptr inbounds nuw (%struct.redisServer, ptr @server, i32 0, i32 378), align 8, !tbaa !67
  %14 = add i32 %13, 1
  store i32 %14, ptr getelementptr inbounds nuw (%struct.redisServer, ptr @server, i32 0, i32 378), align 8, !tbaa !67
  br label %15

15:                                               ; preds = %8, %1
  ret void
}

; Function Attrs: nounwind uwtable
define dso_local void @psubscribeCommand(ptr noundef %0) #0 {
  %2 = alloca ptr, align 8
  %3 = alloca i32, align 4
  %4 = alloca i32, align 4
  store ptr %0, ptr %2, align 8, !tbaa !5
  call void @llvm.lifetime.start.p0(i64 4, ptr %3) #8
  %5 = load ptr, ptr %2, align 8, !tbaa !5
  %6 = getelementptr inbounds nuw %struct.client, ptr %5, i32 0, i32 1
  %7 = load i64, ptr %6, align 8, !tbaa !34
  %8 = and i64 %7, 2199023255552
  %9 = icmp ne i64 %8, 0
  br i1 %9, label %10, label %18

10:                                               ; preds = %1
  %11 = load ptr, ptr %2, align 8, !tbaa !5
  %12 = getelementptr inbounds nuw %struct.client, ptr %11, i32 0, i32 1
  %13 = load i64, ptr %12, align 8, !tbaa !34
  %14 = and i64 %13, 8
  %15 = icmp ne i64 %14, 0
  br i1 %15, label %18, label %16

16:                                               ; preds = %10
  %17 = load ptr, ptr %2, align 8, !tbaa !5
  call void @addReplyError(ptr noundef %17, ptr noundef @.str.7)
  store i32 1, ptr %4, align 4
  br label %40

18:                                               ; preds = %10, %1
  store i32 1, ptr %3, align 4, !tbaa !69
  br label %19

19:                                               ; preds = %35, %18
  %20 = load i32, ptr %3, align 4, !tbaa !69
  %21 = load ptr, ptr %2, align 8, !tbaa !5
  %22 = getelementptr inbounds nuw %struct.client, ptr %21, i32 0, i32 15
  %23 = load i32, ptr %22, align 8, !tbaa !101
  %24 = icmp slt i32 %20, %23
  br i1 %24, label %25, label %38

25:                                               ; preds = %19
  %26 = load ptr, ptr %2, align 8, !tbaa !5
  %27 = load ptr, ptr %2, align 8, !tbaa !5
  %28 = getelementptr inbounds nuw %struct.client, ptr %27, i32 0, i32 16
  %29 = load ptr, ptr %28, align 8, !tbaa !102
  %30 = load i32, ptr %3, align 4, !tbaa !69
  %31 = sext i32 %30 to i64
  %32 = getelementptr inbounds ptr, ptr %29, i64 %31
  %33 = load ptr, ptr %32, align 8, !tbaa !33
  %34 = call i32 @pubsubSubscribePattern(ptr noundef %26, ptr noundef %33)
  br label %35

35:                                               ; preds = %25
  %36 = load i32, ptr %3, align 4, !tbaa !69
  %37 = add nsw i32 %36, 1
  store i32 %37, ptr %3, align 4, !tbaa !69
  br label %19, !llvm.loop !105

38:                                               ; preds = %19
  %39 = load ptr, ptr %2, align 8, !tbaa !5
  call void @markClientAsPubSub(ptr noundef %39)
  store i32 0, ptr %4, align 4
  br label %40

40:                                               ; preds = %38, %16
  call void @llvm.lifetime.end.p0(i64 4, ptr %3) #8
  %41 = load i32, ptr %4, align 4
  switch i32 %41, label %43 [
    i32 0, label %42
    i32 1, label %42
  ]

42:                                               ; preds = %40, %40
  ret void

43:                                               ; preds = %40
  unreachable
}