; Function Attrs: nounwind uwtable
define dso_local void @psubscribeCommand(ptr noundef %0) local_unnamed_addr #2 {
  %2 = getelementptr inbounds nuw i8, ptr %0, i64 8
  %3 = load i64, ptr %2, align 8, !tbaa !31
  %4 = and i64 %3, 2199023255560
  %or.cond = icmp eq i64 %4, 2199023255552
  br i1 %or.cond, label %9, label %.preheader

.preheader:                                       ; preds = %1
  %5 = getelementptr inbounds nuw i8, ptr %0, i64 88
  %6 = load i32, ptr %5, align 8, !tbaa !95
  %7 = icmp sgt i32 %6, 1
  br i1 %7, label %.lr.ph, label %._crit_edge

.lr.ph:                                           ; preds = %.preheader
  %8 = getelementptr inbounds nuw i8, ptr %0, i64 96
  br label %10

9:                                                ; preds = %1
  tail call void @addReplyError(ptr noundef nonnull %0, ptr noundef nonnull @.str.7) #9
  br label %markClientAsPubSub.exit

10:                                               ; preds = %.lr.ph, %10
  %indvars.iv = phi i64 [ 1, %.lr.ph ], [ %indvars.iv.next, %10 ]
  %11 = load ptr, ptr %8, align 8, !tbaa !96
  %12 = getelementptr inbounds nuw ptr, ptr %11, i64 %indvars.iv
  %13 = load ptr, ptr %12, align 8, !tbaa !33
  %14 = tail call i32 @pubsubSubscribePattern(ptr noundef nonnull %0, ptr noundef %13)
  %indvars.iv.next = add nuw nsw i64 %indvars.iv, 1
  %15 = load i32, ptr %5, align 8, !tbaa !95
  %16 = sext i32 %15 to i64
  %17 = icmp slt i64 %indvars.iv.next, %16
  br i1 %17, label %10, label %._crit_edge.loopexit, !llvm.loop !99

._crit_edge.loopexit:                             ; preds = %10
  %.pre = load i64, ptr %2, align 8, !tbaa !31
  br label %._crit_edge

._crit_edge:                                      ; preds = %._crit_edge.loopexit, %.preheader
  %18 = phi i64 [ %.pre, %._crit_edge.loopexit ], [ %3, %.preheader ]
  %19 = and i64 %18, 262144
  %.not.i = icmp eq i64 %19, 0
  br i1 %.not.i, label %20, label %markClientAsPubSub.exit

20:                                               ; preds = %._crit_edge
  %21 = or disjoint i64 %18, 262144
  store i64 %21, ptr %2, align 8, !tbaa !31
  %22 = load i32, ptr getelementptr inbounds nuw (i8, ptr @server, i64 7880), align 8, !tbaa !66
  %23 = add i32 %22, 1
  store i32 %23, ptr getelementptr inbounds nuw (i8, ptr @server, i64 7880), align 8, !tbaa !66
  br label %markClientAsPubSub.exit

markClientAsPubSub.exit:                          ; preds = %20, %._crit_edge, %9
  ret void
}